; Function Attrs: mustprogress nofree norecurse nosync nounwind willreturn memory(read, inaccessiblemem: none) uwtable
define dso_local noundef float @_ZN5ImGui28GetTextLineHeightWithSpacingEv() local_unnamed_addr #31 {
  %1 = load ptr, ptr @GImGui, align 8, !tbaa !211
  %2 = getelementptr inbounds nuw i8, ptr %1, i64 4184
  %3 = load float, ptr %2, align 8, !tbaa !449
  %4 = getelementptr inbounds nuw i8, ptr %1, i64 3096
  %5 = load float, ptr %4, align 4, !tbaa !336
  %6 = fadd float %3, %5
  ret float %6
}